; Function Attrs: nounwind sspstrong uwtable
define internal noundef i64 @ossl_bn_set_flags(i64 noundef %0, i64 noundef %1) #0 {
  %3 = tail call ptr @rb_check_typeddata(i64 noundef %0, ptr noundef nonnull @ossl_bn_type) #11
  %.not = icmp eq ptr %3, null
  br i1 %.not, label %4, label %6

4:                                                ; preds = %2
  %5 = load i64, ptr @rb_eRuntimeError, align 8, !tbaa !6
  tail call void (i64, ptr, ...) @ossl_raise(i64 noundef %5, ptr noundef nonnull @.str) #12
  unreachable

6:                                                ; preds = %2
  %7 = icmp eq i64 %0, 0
  %8 = and i64 %0, 7
  %9 = icmp ne i64 %8, 0
  %10 = or i1 %7, %9
  br i1 %10, label %RB_OBJ_FROZEN.exit.thread.i, label %RB_FL_ABLE.exit.i.i, !prof !18

RB_FL_ABLE.exit.i.i:                              ; preds = %6
  %11 = inttoptr i64 %0 to ptr
  %12 = load i64, ptr %11, align 8, !tbaa !15
  %13 = and i64 %12, 31
  %.not.i.i = icmp eq i64 %13, 27
  %14 = and i64 %12, 2048
  %15 = icmp ne i64 %14, 0
  %or.cond.i = or i1 %.not.i.i, %15
  br i1 %or.cond.i, label %RB_OBJ_FROZEN.exit.thread.i, label %rbimpl_RB_TYPE_P_fastpath.exit.i, !prof !19

RB_OBJ_FROZEN.exit.thread.i:                      ; preds = %RB_FL_ABLE.exit.i.i, %6
  tail call void @rb_error_frozen_object(i64 noundef %0) #12
  unreachable

rbimpl_RB_TYPE_P_fastpath.exit.i:                 ; preds = %RB_FL_ABLE.exit.i.i
  %16 = icmp ne i64 %13, 5
  %17 = and i64 %12, 49152
  %.not.i = icmp eq i64 %17, 0
  %or.cond8.i = or i1 %16, %.not.i
  br i1 %or.cond8.i, label %rb_check_frozen_inline.exit, label %18, !prof !20

18:                                               ; preds = %rbimpl_RB_TYPE_P_fastpath.exit.i
  tail call void @rb_str_modify(i64 noundef %0) #11
  br label %rb_check_frozen_inline.exit

rb_check_frozen_inline.exit:                      ; preds = %rbimpl_RB_TYPE_P_fastpath.exit.i, %18
  %19 = and i64 %1, 1
  %.not.i4 = icmp eq i64 %19, 0
  br i1 %.not.i4, label %22, label %20

20:                                               ; preds = %rb_check_frozen_inline.exit
  %21 = tail call i64 @rb_fix2int(i64 noundef %1) #11
  br label %rb_num2int_inline.exit

22:                                               ; preds = %rb_check_frozen_inline.exit
  %23 = tail call i64 @rb_num2int(i64 noundef %1) #11
  br label %rb_num2int_inline.exit

rb_num2int_inline.exit:                           ; preds = %20, %22
  %.0.i = phi i64 [ %21, %20 ], [ %23, %22 ]
  %24 = trunc i64 %.0.i to i32
  tail call void @BN_set_flags(ptr noundef nonnull %3, i32 noundef %24) #11
  ret i64 4
}